target datalayout = "e-m:e-p270:32:32-p271:32:32-p272:64:64-i64:64-i128:128-f80:128-n8:16:32:64-S128"
target triple = "x86_64-pc-linux-gnu"

%struct.GtkApi = type { i32, ptr, ptr, ptr, ptr, ptr, ptr, ptr, ptr, ptr, ptr, ptr, ptr, ptr, ptr, ptr, ptr, ptr, ptr, ptr, ptr, ptr, ptr, ptr, ptr, ptr, ptr, ptr, ptr, ptr, ptr, ptr, ptr, ptr, ptr, ptr, ptr, ptr, ptr, ptr, ptr, ptr, ptr, ptr, ptr, ptr, ptr, ptr, ptr, ptr, ptr, ptr, ptr, ptr, ptr, ptr, ptr, ptr, ptr, ptr, ptr, ptr, ptr, ptr, ptr, ptr, ptr, ptr, ptr, ptr, ptr, ptr, ptr, ptr, ptr, ptr, ptr, ptr, ptr, ptr, ptr, ptr, ptr, ptr, ptr, ptr, ptr, ptr, ptr, ptr, ptr, ptr, ptr, ptr, ptr, ptr, ptr, ptr, ptr, ptr, ptr, ptr, ptr, ptr, ptr }
%struct.DBusCallbackHelper = type { i32, ptr, i32 }

@gtk = external global ptr, align 8
@.str.2 = private unnamed_addr constant [10 x i8] c"(u@a{sv})\00", align 1
@.str.69 = private unnamed_addr constant [39 x i8] c"%s:%i Failed to create ScreenCast: %u\0A\00", align 1
@__func__.callbackScreenCastCreateSession = private unnamed_addr constant [32 x i8] c"callbackScreenCastCreateSession\00", align 1
@.str.70 = private unnamed_addr constant [15 x i8] c"session_handle\00", align 1
@.str.71 = private unnamed_addr constant [2 x i8] c"s\00", align 1

; Function Attrs: nounwind uwtable
define internal void @callbackScreenCastCreateSession(ptr noundef %0, ptr noundef %1, ptr noundef %2, ptr noundef %3, ptr noundef %4, ptr noundef %5, ptr noundef %6) #0 {
  %8 = alloca ptr, align 8
  %9 = alloca ptr, align 8
  %10 = alloca ptr, align 8
  %11 = alloca ptr, align 8
  %12 = alloca ptr, align 8
  %13 = alloca ptr, align 8
  %14 = alloca ptr, align 8
  %15 = alloca ptr, align 8
  %16 = alloca i32, align 4
  %17 = alloca ptr, align 8
  store ptr %0, ptr %8, align 8
  store ptr %1, ptr %9, align 8
  store ptr %2, ptr %10, align 8
  store ptr %3, ptr %11, align 8
  store ptr %4, ptr %12, align 8
  store ptr %5, ptr %13, align 8
  store ptr %6, ptr %14, align 8
  %18 = load ptr, ptr %14, align 8
  store ptr %18, ptr %15, align 8
  store ptr null, ptr %17, align 8
  %19 = load ptr, ptr @gtk, align 8
  %20 = getelementptr inbounds %struct.GtkApi, ptr %19, i32 0, i32 72
  %21 = load ptr, ptr %20, align 8
  %22 = load ptr, ptr %13, align 8
  call void (ptr, ptr, ...) %21(ptr noundef %22, ptr noundef @.str.2, ptr noundef %16, ptr noundef %17)
  %23 = load i32, ptr %16, align 4
  %24 = icmp ne i32 %23, 0
  br i1 %24, label %25, label %27

25:                                               ; preds = %7
  %26 = load i32, ptr %16, align 4
  call void (ptr, ...) @debug_screencast(ptr noundef @.str.69, ptr noundef @__func__.callbackScreenCastCreateSession, i32 noundef 359, i32 noundef %26)
  br label %36

27:                                               ; preds = %7
  %28 = load ptr, ptr @gtk, align 8
  %29 = getelementptr inbounds %struct.GtkApi, ptr %28, i32 0, i32 75
  %30 = load ptr, ptr %29, align 8
  %31 = load ptr, ptr %17, align 8
  %32 = load ptr, ptr %15, align 8
  %33 = getelementptr inbounds %struct.DBusCallbackHelper, ptr %32, i32 0, i32 1
  %34 = load ptr, ptr %33, align 8
  %35 = call i32 (ptr, ptr, ptr, ...) %30(ptr noundef %31, ptr noundef @.str.70, ptr noundef @.str.71, ptr noundef %34)
  br label %36

36:                                               ; preds = %27, %25
  %37 = load ptr, ptr %15, align 8
  %38 = getelementptr inbounds %struct.DBusCallbackHelper, ptr %37, i32 0, i32 2
  store i32 1, ptr %38, align 8
  ret void
}