; Function Attrs: nounwind uwtable
define internal void @callbackScreenCastCreateSession(ptr nocapture readnone %0, ptr nocapture readnone %1, ptr nocapture readnone %2, ptr nocapture readnone %3, ptr nocapture readnone %4, ptr noundef %5, ptr nocapture noundef %6) #0 {
  %8 = alloca i32, align 4
  %9 = alloca ptr, align 8
  store ptr null, ptr %9, align 8
  %10 = load ptr, ptr @gtk, align 8
  %11 = getelementptr inbounds i8, ptr %10, i64 576
  %12 = load ptr, ptr %11, align 8
  call void (ptr, ptr, ...) %12(ptr noundef %5, ptr noundef nonnull @.str.2, ptr noundef nonnull %8, ptr noundef nonnull %9) #9
  %13 = load i32, ptr %8, align 4
  %.not = icmp eq i32 %13, 0
  br i1 %.not, label %15, label %14

14:                                               ; preds = %7
  call void (ptr, ...) @debug_screencast(ptr noundef nonnull @.str.69, ptr noundef nonnull @__func__.callbackScreenCastCreateSession, i32 noundef 359, i32 noundef %13) #9
  br label %23

15:                                               ; preds = %7
  %16 = load ptr, ptr @gtk, align 8
  %17 = getelementptr inbounds i8, ptr %16, i64 600
  %18 = load ptr, ptr %17, align 8
  %19 = load ptr, ptr %9, align 8
  %20 = getelementptr inbounds i8, ptr %6, i64 8
  %21 = load ptr, ptr %20, align 8
  %22 = call i32 (ptr, ptr, ptr, ...) %18(ptr noundef %19, ptr noundef nonnull @.str.70, ptr noundef nonnull @.str.71, ptr noundef %21) #9
  br label %23

23:                                               ; preds = %15, %14
  %24 = getelementptr inbounds i8, ptr %6, i64 16
  store i32 1, ptr %24, align 8
  ret void
}